; Function Attrs: mustprogress nofree nounwind willreturn uwtable
define internal noundef range(i32 -106, 1) i32 @_ZL23asn1_get_sequence_of_cbPviPhm(ptr noundef captures(none) %0, i32 noundef %1, ptr noundef %2, i64 noundef %3) #7 {
  %5 = getelementptr inbounds nuw i8, ptr %0, i64 8
  %6 = load ptr, ptr %5, align 8, !tbaa !28
  %7 = getelementptr inbounds nuw i8, ptr %6, i64 16
  %8 = load ptr, ptr %7, align 8, !tbaa !29
  %.not = icmp eq ptr %8, null
  br i1 %.not, label %13, label %9

9:                                                ; preds = %4
  %10 = tail call noalias dereferenceable_or_null(32) ptr @calloc(i64 noundef 1, i64 noundef 32) #12
  %11 = getelementptr inbounds nuw i8, ptr %6, i64 24
  store ptr %10, ptr %11, align 8, !tbaa !21
  %12 = icmp eq ptr %10, null
  br i1 %12, label %16, label %13

13:                                               ; preds = %9, %4
  %.0 = phi ptr [ %6, %4 ], [ %10, %9 ]
  %14 = getelementptr inbounds nuw i8, ptr %.0, i64 16
  store ptr %2, ptr %14, align 8, !tbaa !29
  %15 = getelementptr inbounds nuw i8, ptr %.0, i64 8
  store i64 %3, ptr %15, align 8, !tbaa !30
  store i32 %1, ptr %.0, align 8, !tbaa !31
  store ptr %.0, ptr %5, align 8, !tbaa !28
  br label %16

16:                                               ; preds = %9, %13
  %.014 = phi i32 [ 0, %13 ], [ -106, %9 ]
  ret i32 %.014
}